target datalayout = "e-m:e-p270:32:32-p271:32:32-p272:64:64-i64:64-i128:128-f80:128-n8:16:32:64-S128"
target triple = "x86_64-pc-linux-gnu"

%struct._packet_info = type { ptr, ptr, i32, i32, %struct.nstime_t, %struct.nstime_t, %struct.nstime_t, i8, ptr, ptr, ptr, ptr, %struct._address, %struct._address, %struct._address, %struct._address, %struct._address, %struct._address, i32, ptr, i8, [3 x i8], %struct.anon, i32, i32, i32, i32, ptr, i8, ptr, ptr, i16, i16, i32, i32, i16, i32, i32, ptr, ptr, ptr, i8, i8, i16, i16, i16, i32, i16, i16, ptr, ptr, ptr, ptr, ptr, i32, i32 }
%struct.nstime_t = type { i64, i32 }
%struct._address = type { i32, i32, ptr, ptr }
%struct.anon = type { i8, [3 x i8] }

@.str.3 = private unnamed_addr constant [34 x i8] c"Locamation Interface Module IDENT\00", align 1
@.str.4 = private unnamed_addr constant [6 x i8] c"IDENT\00", align 1
@h_protocol_ident = internal global i32 -1, align 4
@ett_protocol_ident = internal global i32 0, align 4
@ett_ident_lines = internal global i32 0, align 4
@hf_ident_contents = internal global i32 0, align 4
@hf_ident_contents_line = internal global i32 0, align 4

; Function Attrs: null_pointer_is_valid sspstrong uwtable
define internal i32 @dissect_ident(ptr noundef %0, ptr noundef %1, ptr noundef %2, ptr noundef %3) #0 {
  %5 = alloca ptr, align 8
  %6 = alloca ptr, align 8
  %7 = alloca ptr, align 8
  %8 = alloca ptr, align 8
  %9 = alloca ptr, align 8
  %10 = alloca ptr, align 8
  %11 = alloca i32, align 4
  %12 = alloca ptr, align 8
  %13 = alloca ptr, align 8
  store ptr %0, ptr %5, align 8
  store ptr %1, ptr %6, align 8
  store ptr %2, ptr %7, align 8
  store ptr %3, ptr %8, align 8
  %14 = load ptr, ptr %6, align 8
  %15 = getelementptr inbounds nuw %struct._packet_info, ptr %14, i32 0, i32 1
  %16 = load ptr, ptr %15, align 8
  call void @col_set_str(ptr noundef %16, i32 noundef 35, ptr noundef @.str.4)
  %17 = load ptr, ptr %6, align 8
  %18 = getelementptr inbounds nuw %struct._packet_info, ptr %17, i32 0, i32 1
  %19 = load ptr, ptr %18, align 8
  call void @col_set_str(ptr noundef %19, i32 noundef 25, ptr noundef @.str.3)
  call void @llvm.lifetime.start.p0(i64 8, ptr %9) #6
  %20 = load ptr, ptr %7, align 8
  %21 = load i32, ptr @h_protocol_ident, align 4
  %22 = load ptr, ptr %5, align 8
  %23 = call ptr @proto_tree_add_item(ptr noundef %20, i32 noundef %21, ptr noundef %22, i32 noundef 0, i32 noundef -1, i32 noundef 0)
  store ptr %23, ptr %9, align 8
  call void @llvm.lifetime.start.p0(i64 8, ptr %10) #6
  %24 = load ptr, ptr %9, align 8
  %25 = load i32, ptr @ett_protocol_ident, align 4
  %26 = call ptr @proto_item_add_subtree(ptr noundef %24, i32 noundef %25)
  store ptr %26, ptr %10, align 8
  call void @llvm.lifetime.start.p0(i64 4, ptr %11) #6
  %27 = load ptr, ptr %5, align 8
  %28 = call i32 @tvb_reported_length_remaining(ptr noundef %27, i32 noundef 0)
  store i32 %28, ptr %11, align 4
  call void @llvm.lifetime.start.p0(i64 8, ptr %12) #6
  %29 = load ptr, ptr %10, align 8
  %30 = load i32, ptr @hf_ident_contents, align 4
  %31 = load ptr, ptr %5, align 8
  %32 = load i32, ptr %11, align 4
  %33 = call ptr @proto_tree_add_item(ptr noundef %29, i32 noundef %30, ptr noundef %31, i32 noundef 0, i32 noundef %32, i32 noundef 2)
  store ptr %33, ptr %12, align 8
  call void @llvm.lifetime.start.p0(i64 8, ptr %13) #6
  %34 = load ptr, ptr %12, align 8
  %35 = load i32, ptr @ett_ident_lines, align 4
  %36 = call ptr @proto_item_add_subtree(ptr noundef %34, i32 noundef %35)
  store ptr %36, ptr %13, align 8
  %37 = load ptr, ptr %6, align 8
  %38 = load ptr, ptr %5, align 8
  %39 = load ptr, ptr %13, align 8
  %40 = load i32, ptr @hf_ident_contents_line, align 4
  call void @add_split_lines(ptr noundef %37, ptr noundef %38, i32 noundef 0, ptr noundef %39, i32 noundef %40)
  %41 = load ptr, ptr %5, align 8
  %42 = call i32 @tvb_captured_length(ptr noundef %41)
  call void @llvm.lifetime.end.p0(i64 8, ptr %13) #6
  call void @llvm.lifetime.end.p0(i64 8, ptr %12) #6
  call void @llvm.lifetime.end.p0(i64 4, ptr %11) #6
  call void @llvm.lifetime.end.p0(i64 8, ptr %10) #6
  call void @llvm.lifetime.end.p0(i64 8, ptr %9) #6
  ret i32 %42
}