; Function Attrs: null_pointer_is_valid sspstrong uwtable
define internal i32 @dissect_ident(ptr noundef %0, ptr noundef readonly captures(none) %1, ptr noundef %2, ptr readnone captures(none) %3) #0 {
  %5 = getelementptr inbounds nuw i8, ptr %1, i64 8
  %6 = load ptr, ptr %5, align 8
  tail call void @col_set_str(ptr noundef %6, i32 noundef 35, ptr noundef nonnull @.str.4)
  %7 = load ptr, ptr %5, align 8
  tail call void @col_set_str(ptr noundef %7, i32 noundef 25, ptr noundef nonnull @.str.3)
  %8 = load i32, ptr @h_protocol_ident, align 4
  %9 = tail call ptr @proto_tree_add_item(ptr noundef %2, i32 noundef %8, ptr noundef %0, i32 noundef 0, i32 noundef -1, i32 noundef 0)
  %10 = load i32, ptr @ett_protocol_ident, align 4
  %11 = tail call ptr @proto_item_add_subtree(ptr noundef %9, i32 noundef %10)
  %12 = tail call i32 @tvb_reported_length_remaining(ptr noundef %0, i32 noundef 0)
  %13 = load i32, ptr @hf_ident_contents, align 4
  %14 = tail call ptr @proto_tree_add_item(ptr noundef %11, i32 noundef %13, ptr noundef %0, i32 noundef 0, i32 noundef %12, i32 noundef 2)
  %15 = load i32, ptr @ett_ident_lines, align 4
  %16 = tail call ptr @proto_item_add_subtree(ptr noundef %14, i32 noundef %15)
  %17 = load i32, ptr @hf_ident_contents_line, align 4
  tail call fastcc void @add_split_lines(ptr noundef %1, ptr noundef %0, i32 noundef 0, ptr noundef %16, i32 noundef %17)
  %18 = tail call i32 @tvb_captured_length(ptr noundef %0)
  ret i32 %18
}